(dp0
S'pout'
p1
(dp2
I33072368
(F0.26250000000000001
F0.65625
tp3
sI33071152
(F0.26250000000000001
F5.6437499999999998
tp4
sI33094032
(F3.6749999999999998
F-1.6187499999999999
tp5
sI33094384
(F-3.2374999999999998
F-1.6187499999999999
tp6
ssS'lout'
p7
(lp8
((lp9
I33071152
aI33072368
aI1
tp10
a((lp11
I33094384
aI33072368
aI0
tp12
a((lp13
I33094032
aI33072368
aI0
tp14
a((lp15
I33094384
aI33071152
aI0
tp16
a((lp17
I33094032
aI33071152
aI0
tp18
as.